; Function Attrs: mustprogress uwtable
define hidden void @_ZN11hwf_manager3divE17mpf_rounding_modeRK3hwfS3_RS1_(ptr noundef nonnull readnone align 8 captures(none) dereferenceable(736) %0, i32 noundef %1, ptr noundef nonnull readonly align 8 captures(none) dereferenceable(8) %2, ptr noundef nonnull readonly align 8 captures(none) dereferenceable(8) %3, ptr noundef nonnull writeonly align 8 captures(none) dereferenceable(8) initializes((0, 8)) %4) local_unnamed_addr #3 align 2 {
  switch i32 %1, label %14 [
    i32 0, label %6
    i32 2, label %8
    i32 3, label %10
    i32 4, label %12
  ]

6:                                                ; preds = %5
  %7 = tail call i32 @fesetround(i32 noundef 0) #24
  br label %_ZN11hwf_manager17set_rounding_modeE17mpf_rounding_mode.exit

8:                                                ; preds = %5
  %9 = tail call i32 @fesetround(i32 noundef 2048) #24
  br label %_ZN11hwf_manager17set_rounding_modeE17mpf_rounding_mode.exit

10:                                               ; preds = %5
  %11 = tail call i32 @fesetround(i32 noundef 1024) #24
  br label %_ZN11hwf_manager17set_rounding_modeE17mpf_rounding_mode.exit

12:                                               ; preds = %5
  %13 = tail call i32 @fesetround(i32 noundef 3072) #24
  br label %_ZN11hwf_manager17set_rounding_modeE17mpf_rounding_mode.exit

14:                                               ; preds = %5
  tail call void @_Z26notify_assertion_violationPKciS0_(ptr noundef nonnull @.str.7, i32 noundef 607, ptr noundef nonnull @.str.8)
  tail call void @_Z18invoke_exit_actionj(i32 noundef 114)
  br label %_ZN11hwf_manager17set_rounding_modeE17mpf_rounding_mode.exit

_ZN11hwf_manager17set_rounding_modeE17mpf_rounding_mode.exit: ; preds = %6, %8, %10, %12, %14
  %15 = load double, ptr %2, align 8, !tbaa !13
  %16 = load double, ptr %3, align 8, !tbaa !13
  %17 = fdiv double %15, %16
  store double %17, ptr %4, align 8, !tbaa !13
  ret void
}